target datalayout = "e-m:e-p270:32:32-p271:32:32-p272:64:64-i64:64-i128:128-f80:128-n8:16:32:64-S128"
target triple = "x86_64-unknown-linux-gnu"

%"struct.node::quic::TLSContext::Options" = type { %"class.node::MemoryRetainer", %"class.std::__cxx11::basic_string", %"class.std::__cxx11::basic_string", i8, i8, i8, i8, i8, %"class.std::__cxx11::basic_string", %"class.std::__cxx11::basic_string", %"class.std::__cxx11::basic_string", %"class.std::vector", %"class.std::vector.3", %"class.std::vector.3", %"class.std::vector.3" }
%"class.node::MemoryRetainer" = type { ptr }
%"class.std::__cxx11::basic_string" = type { %"struct.std::__cxx11::basic_string<char>::_Alloc_hider", i64, %union.anon }
%"struct.std::__cxx11::basic_string<char>::_Alloc_hider" = type { ptr }
%union.anon = type { i64, [8 x i8] }
%"class.std::vector" = type { %"struct.std::_Vector_base" }
%"struct.std::_Vector_base" = type { %"struct.std::_Vector_base<std::shared_ptr<node::crypto::KeyObjectData>, std::allocator<std::shared_ptr<node::crypto::KeyObjectData>>>::_Vector_impl" }
%"struct.std::_Vector_base<std::shared_ptr<node::crypto::KeyObjectData>, std::allocator<std::shared_ptr<node::crypto::KeyObjectData>>>::_Vector_impl" = type { %"struct.std::_Vector_base<std::shared_ptr<node::crypto::KeyObjectData>, std::allocator<std::shared_ptr<node::crypto::KeyObjectData>>>::_Vector_impl_data" }
%"struct.std::_Vector_base<std::shared_ptr<node::crypto::KeyObjectData>, std::allocator<std::shared_ptr<node::crypto::KeyObjectData>>>::_Vector_impl_data" = type { ptr, ptr, ptr }
%"class.std::vector.3" = type { %"struct.std::_Vector_base.4" }
%"struct.std::_Vector_base.4" = type { %"struct.std::_Vector_base<node::quic::Store, std::allocator<node::quic::Store>>::_Vector_impl" }
%"struct.std::_Vector_base<node::quic::Store, std::allocator<node::quic::Store>>::_Vector_impl" = type { %"struct.std::_Vector_base<node::quic::Store, std::allocator<node::quic::Store>>::_Vector_impl_data" }
%"struct.std::_Vector_base<node::quic::Store, std::allocator<node::quic::Store>>::_Vector_impl_data" = type { ptr, ptr, ptr }

@.str.14 = private unnamed_addr constant [5 x i8] c"keys\00", align 1
@.str.15 = private unnamed_addr constant [6 x i8] c"certs\00", align 1
@.str.16 = private unnamed_addr constant [3 x i8] c"ca\00", align 1
@.str.17 = private unnamed_addr constant [4 x i8] c"crl\00", align 1

; Function Attrs: mustprogress nounwind uwtable
define dso_local void @_ZNK4node4quic10TLSContext7Options10MemoryInfoEPNS_13MemoryTrackerE(ptr noundef nonnull align 8 dereferenceable(272) %this, ptr noundef %tracker) unnamed_addr #5 align 2 {
entry:
  %this.addr = alloca ptr, align 8
  %tracker.addr = alloca ptr, align 8
  store ptr %this, ptr %this.addr, align 8
  store ptr %tracker, ptr %tracker.addr, align 8
  %this1 = load ptr, ptr %this.addr, align 8
  %0 = load ptr, ptr %tracker.addr, align 8
  %keys = getelementptr inbounds %"struct.node::quic::TLSContext::Options", ptr %this1, i32 0, i32 11
  call void @_ZN4node13MemoryTracker10TrackFieldISt6vectorISt10shared_ptrINS_6crypto13KeyObjectDataEESaIS6_EEN9__gnu_cxx17__normal_iteratorIPKS6_S8_EEEEvPKcRKT_SF_SF_b(ptr noundef nonnull align 8 dereferenceable(152) %0, ptr noundef @.str.14, ptr noundef nonnull align 8 dereferenceable(24) %keys, ptr noundef null, ptr noundef null, i1 noundef zeroext true)
  %1 = load ptr, ptr %tracker.addr, align 8
  %certs = getelementptr inbounds %"struct.node::quic::TLSContext::Options", ptr %this1, i32 0, i32 12
  call void @_ZN4node13MemoryTracker10TrackFieldISt6vectorINS_4quic5StoreESaIS4_EEN9__gnu_cxx17__normal_iteratorIPKS4_S6_EEEEvPKcRKT_SD_SD_b(ptr noundef nonnull align 8 dereferenceable(152) %1, ptr noundef @.str.15, ptr noundef nonnull align 8 dereferenceable(24) %certs, ptr noundef null, ptr noundef null, i1 noundef zeroext true)
  %2 = load ptr, ptr %tracker.addr, align 8
  %ca = getelementptr inbounds %"struct.node::quic::TLSContext::Options", ptr %this1, i32 0, i32 13
  call void @_ZN4node13MemoryTracker10TrackFieldISt6vectorINS_4quic5StoreESaIS4_EEN9__gnu_cxx17__normal_iteratorIPKS4_S6_EEEEvPKcRKT_SD_SD_b(ptr noundef nonnull align 8 dereferenceable(152) %2, ptr noundef @.str.16, ptr noundef nonnull align 8 dereferenceable(24) %ca, ptr noundef null, ptr noundef null, i1 noundef zeroext true)
  %3 = load ptr, ptr %tracker.addr, align 8
  %crl = getelementptr inbounds %"struct.node::quic::TLSContext::Options", ptr %this1, i32 0, i32 14
  call void @_ZN4node13MemoryTracker10TrackFieldISt6vectorINS_4quic5StoreESaIS4_EEN9__gnu_cxx17__normal_iteratorIPKS4_S6_EEEEvPKcRKT_SD_SD_b(ptr noundef nonnull align 8 dereferenceable(152) %3, ptr noundef @.str.17, ptr noundef nonnull align 8 dereferenceable(24) %crl, ptr noundef null, ptr noundef null, i1 noundef zeroext true)
  ret void
}