; Function Attrs: mustprogress nounwind uwtable
define dso_local void @_ZNK4node4quic10TLSContext7Options10MemoryInfoEPNS_13MemoryTrackerE(ptr noundef nonnull align 8 dereferenceable(272) %this, ptr noundef nonnull %tracker) unnamed_addr #4 align 2 {
entry:
  %keys = getelementptr inbounds i8, ptr %this, i64 176
  tail call void @_ZN4node13MemoryTracker10TrackFieldISt6vectorISt10shared_ptrINS_6crypto13KeyObjectDataEESaIS6_EEN9__gnu_cxx17__normal_iteratorIPKS6_S8_EEEEvPKcRKT_SF_SF_b(ptr noundef nonnull align 8 dereferenceable(152) %tracker, ptr noundef nonnull @.str.14, ptr noundef nonnull align 8 dereferenceable(24) %keys, ptr noundef null, ptr noundef null, i1 noundef zeroext true)
  %certs = getelementptr inbounds i8, ptr %this, i64 200
  tail call void @_ZN4node13MemoryTracker10TrackFieldISt6vectorINS_4quic5StoreESaIS4_EEN9__gnu_cxx17__normal_iteratorIPKS4_S6_EEEEvPKcRKT_SD_SD_b(ptr noundef nonnull align 8 dereferenceable(152) %tracker, ptr noundef nonnull @.str.15, ptr noundef nonnull align 8 dereferenceable(24) %certs, ptr noundef null, ptr noundef null, i1 noundef zeroext true)
  %ca = getelementptr inbounds i8, ptr %this, i64 224
  tail call void @_ZN4node13MemoryTracker10TrackFieldISt6vectorINS_4quic5StoreESaIS4_EEN9__gnu_cxx17__normal_iteratorIPKS4_S6_EEEEvPKcRKT_SD_SD_b(ptr noundef nonnull align 8 dereferenceable(152) %tracker, ptr noundef nonnull @.str.16, ptr noundef nonnull align 8 dereferenceable(24) %ca, ptr noundef null, ptr noundef null, i1 noundef zeroext true)
  %crl = getelementptr inbounds i8, ptr %this, i64 248
  tail call void @_ZN4node13MemoryTracker10TrackFieldISt6vectorINS_4quic5StoreESaIS4_EEN9__gnu_cxx17__normal_iteratorIPKS4_S6_EEEEvPKcRKT_SD_SD_b(ptr noundef nonnull align 8 dereferenceable(152) %tracker, ptr noundef nonnull @.str.17, ptr noundef nonnull align 8 dereferenceable(24) %crl, ptr noundef null, ptr noundef null, i1 noundef zeroext true)
  ret void
}